target datalayout = "e-m:e-p270:32:32-p271:32:32-p272:64:64-i64:64-i128:128-f80:128-n8:16:32:64-S128"
target triple = "x86_64-pc-linux-gnu"

%"class.sat::elim_vars" = type { ptr, ptr, %"class.dd::bdd_manager", %class.random_gen, %class.svector.2, %class.svector.2, i32, %class.svector.2, %class.svector.2, i32, i32, i32, i32 }
%"class.dd::bdd_manager" = type { i32, %class.svector, %class.ptr_hashtable, %class.hashtable, %class.svector.2, %class.svector.2, ptr, %class.svector.2, %class.svector.2, %class.svector.2, %class.svector.2, %class.small_object_allocator, %class.svector.2, i32, %class.svector.4, %class.svector.2, i8, i8, i32, %class.svector.2, %class.svector.2, %class.svector.2, %class.vector.6, %class.svector.2, i32, i32 }
%class.svector = type { %class.vector }
%class.vector = type { ptr }
%class.ptr_hashtable = type { %class.core_hashtable.base, [4 x i8] }
%class.core_hashtable.base = type <{ ptr, i32, i32, i32 }>
%class.hashtable = type { %class.core_hashtable.base.1, [4 x i8] }
%class.core_hashtable.base.1 = type <{ ptr, i32, i32, i32 }>
%class.small_object_allocator = type { [32 x ptr], [32 x ptr], i64 }
%class.svector.4 = type { %class.vector.5 }
%class.vector.5 = type { ptr }
%class.vector.6 = type { ptr }
%class.random_gen = type { i32 }
%class.svector.2 = type { %class.vector.3 }
%class.vector.3 = type { ptr }

; Function Attrs: mustprogress nounwind uwtable
define linkonce_odr hidden noundef i32 @_ZN10random_genclEv(ptr noundef nonnull align 4 dereferenceable(4) %0) #5 comdat align 2 {
  %2 = alloca ptr, align 8
  store ptr %0, ptr %2, align 8, !tbaa !71
  %3 = load ptr, ptr %2, align 8
  %4 = getelementptr inbounds nuw %class.random_gen, ptr %3, i32 0, i32 0
  %5 = load i32, ptr %4, align 4, !tbaa !74
  %6 = zext i32 %5 to i64
  %7 = mul nsw i64 %6, 214013
  %8 = add nsw i64 %7, 2531011
  %9 = trunc i64 %8 to i32
  %10 = getelementptr inbounds nuw %class.random_gen, ptr %3, i32 0, i32 0
  store i32 %9, ptr %10, align 4, !tbaa !74
  %11 = lshr i32 %9, 16
  %12 = and i32 %11, 32767
  ret i32 %12
}

; Function Attrs: inlinehint mustprogress nounwind uwtable
define linkonce_odr void @_ZSt4swapIjENSt9enable_ifIXsr6__and_ISt6__not_ISt15__is_tuple_likeIT_EESt21is_move_constructibleIS3_ESt18is_move_assignableIS3_EEE5valueEvE4typeERS3_SC_(ptr noundef nonnull align 4 dereferenceable(4) %0, ptr noundef nonnull align 4 dereferenceable(4) %1) #9 comdat {
  %3 = alloca ptr, align 8
  %4 = alloca ptr, align 8
  %5 = alloca i32, align 4
  store ptr %0, ptr %3, align 8, !tbaa !102
  store ptr %1, ptr %4, align 8, !tbaa !102
  call void @llvm.lifetime.start.p0(i64 4, ptr %5) #3
  %6 = load ptr, ptr %3, align 8, !tbaa !102
  %7 = load i32, ptr %6, align 4, !tbaa !73
  store i32 %7, ptr %5, align 4, !tbaa !73
  %8 = load ptr, ptr %4, align 8, !tbaa !102
  %9 = load i32, ptr %8, align 4, !tbaa !73
  %10 = load ptr, ptr %3, align 8, !tbaa !102
  store i32 %9, ptr %10, align 4, !tbaa !73
  %11 = load i32, ptr %5, align 4, !tbaa !73
  %12 = load ptr, ptr %4, align 8, !tbaa !102
  store i32 %11, ptr %12, align 4, !tbaa !73
  call void @llvm.lifetime.end.p0(i64 4, ptr %5) #3
  ret void
}

; Function Attrs: mustprogress nounwind uwtable
define linkonce_odr hidden noundef nonnull align 4 dereferenceable(4) ptr @_ZN6vectorIjLb0EjEixEj(ptr noundef nonnull align 8 dereferenceable(8) %0, i32 noundef %1) #5 comdat align 2 {
  %3 = alloca ptr, align 8
  %4 = alloca i32, align 4
  store ptr %0, ptr %3, align 8, !tbaa !237
  store i32 %1, ptr %4, align 4, !tbaa !73
  %5 = load ptr, ptr %3, align 8
  %6 = getelementptr inbounds nuw %class.vector.3, ptr %5, i32 0, i32 0
  %7 = load ptr, ptr %6, align 8, !tbaa !239
  %8 = load i32, ptr %4, align 4, !tbaa !73
  %9 = zext i32 %8 to i64
  %10 = getelementptr inbounds nuw i32, ptr %7, i64 %9
  ret ptr %10
}

; Function Attrs: mustprogress uwtable
define linkonce_odr hidden noundef i32 @_ZN10random_genclEj(ptr noundef nonnull align 4 dereferenceable(4) %0, i32 noundef %1) #4 comdat align 2 {
  %3 = alloca ptr, align 8
  %4 = alloca i32, align 4
  %5 = alloca i32, align 4
  store ptr %0, ptr %3, align 8, !tbaa !71
  store i32 %1, ptr %4, align 4, !tbaa !73
  %6 = load ptr, ptr %3, align 8
  call void @llvm.lifetime.start.p0(i64 4, ptr %5) #3
  %7 = call noundef i32 @_ZN10random_genclEv(ptr noundef nonnull align 4 dereferenceable(4) %6)
  store i32 %7, ptr %5, align 4, !tbaa !73
  %8 = load i32, ptr %5, align 4, !tbaa !73
  %9 = load i32, ptr %4, align 4, !tbaa !73
  %10 = urem i32 %8, %9
  call void @llvm.lifetime.end.p0(i64 4, ptr %5) #3
  ret i32 %10
}

; Function Attrs: mustprogress nounwind uwtable
define linkonce_odr hidden noundef i32 @_ZNK6vectorIjLb0EjE4sizeEv(ptr noundef nonnull align 8 dereferenceable(8) %0) #5 comdat align 2 {
  %2 = alloca i32, align 4
  %3 = alloca ptr, align 8
  store ptr %0, ptr %3, align 8, !tbaa !237
  %4 = load ptr, ptr %3, align 8
  %5 = getelementptr inbounds nuw %class.vector.3, ptr %4, i32 0, i32 0
  %6 = load ptr, ptr %5, align 8, !tbaa !239
  %7 = icmp eq ptr %6, null
  br i1 %7, label %8, label %9

8:                                                ; preds = %1
  store i32 0, ptr %2, align 4
  br label %14

9:                                                ; preds = %1
  %10 = getelementptr inbounds nuw %class.vector.3, ptr %4, i32 0, i32 0
  %11 = load ptr, ptr %10, align 8, !tbaa !239
  %12 = getelementptr inbounds i32, ptr %11, i64 -1
  %13 = load i32, ptr %12, align 4, !tbaa !73
  store i32 %13, ptr %2, align 4
  br label %14

14:                                               ; preds = %9, %8
  %15 = load i32, ptr %2, align 4
  ret i32 %15
}

; Function Attrs: mustprogress uwtable
define hidden void @_ZN3sat9elim_vars12shuffle_varsEv(ptr noundef nonnull align 8 dereferenceable(808) %0) #4 align 2 {
  %2 = alloca ptr, align 8
  %3 = alloca i32, align 4
  %4 = alloca i32, align 4
  %5 = alloca i32, align 4
  %6 = alloca i32, align 4
  store ptr %0, ptr %2, align 8, !tbaa !3
  %7 = load ptr, ptr %2, align 8
  call void @llvm.lifetime.start.p0(i64 4, ptr %3) #3
  %8 = getelementptr inbounds nuw %"class.sat::elim_vars", ptr %7, i32 0, i32 4
  %9 = call noundef i32 @_ZNK6vectorIjLb0EjE4sizeEv(ptr noundef nonnull align 8 dereferenceable(8) %8)
  store i32 %9, ptr %3, align 4, !tbaa !73
  call void @llvm.lifetime.start.p0(i64 4, ptr %4) #3
  store i32 0, ptr %4, align 4, !tbaa !73
  br label %10

10:                                               ; preds = %28, %1
  %11 = load i32, ptr %4, align 4, !tbaa !73
  %12 = load i32, ptr %3, align 4, !tbaa !73
  %13 = icmp ult i32 %11, %12
  br i1 %13, label %15, label %14

14:                                               ; preds = %10
  call void @llvm.lifetime.end.p0(i64 4, ptr %4) #3
  br label %31

15:                                               ; preds = %10
  call void @llvm.lifetime.start.p0(i64 4, ptr %5) #3
  %16 = getelementptr inbounds nuw %"class.sat::elim_vars", ptr %7, i32 0, i32 3
  %17 = load i32, ptr %3, align 4, !tbaa !73
  %18 = call noundef i32 @_ZN10random_genclEj(ptr noundef nonnull align 4 dereferenceable(4) %16, i32 noundef %17)
  store i32 %18, ptr %5, align 4, !tbaa !73
  call void @llvm.lifetime.start.p0(i64 4, ptr %6) #3
  %19 = getelementptr inbounds nuw %"class.sat::elim_vars", ptr %7, i32 0, i32 3
  %20 = load i32, ptr %3, align 4, !tbaa !73
  %21 = call noundef i32 @_ZN10random_genclEj(ptr noundef nonnull align 4 dereferenceable(4) %19, i32 noundef %20)
  store i32 %21, ptr %6, align 4, !tbaa !73
  %22 = getelementptr inbounds nuw %"class.sat::elim_vars", ptr %7, i32 0, i32 4
  %23 = load i32, ptr %5, align 4, !tbaa !73
  %24 = call noundef nonnull align 4 dereferenceable(4) ptr @_ZN6vectorIjLb0EjEixEj(ptr noundef nonnull align 8 dereferenceable(8) %22, i32 noundef %23)
  %25 = getelementptr inbounds nuw %"class.sat::elim_vars", ptr %7, i32 0, i32 4
  %26 = load i32, ptr %6, align 4, !tbaa !73
  %27 = call noundef nonnull align 4 dereferenceable(4) ptr @_ZN6vectorIjLb0EjEixEj(ptr noundef nonnull align 8 dereferenceable(8) %25, i32 noundef %26)
  call void @_ZSt4swapIjENSt9enable_ifIXsr6__and_ISt6__not_ISt15__is_tuple_likeIT_EESt21is_move_constructibleIS3_ESt18is_move_assignableIS3_EEE5valueEvE4typeERS3_SC_(ptr noundef nonnull align 4 dereferenceable(4) %24, ptr noundef nonnull align 4 dereferenceable(4) %27) #3
  call void @llvm.lifetime.end.p0(i64 4, ptr %6) #3
  call void @llvm.lifetime.end.p0(i64 4, ptr %5) #3
  br label %28

28:                                               ; preds = %15
  %29 = load i32, ptr %4, align 4, !tbaa !73
  %30 = add i32 %29, 1
  store i32 %30, ptr %4, align 4, !tbaa !73
  br label %10, !llvm.loop !254

31:                                               ; preds = %14
  call void @llvm.lifetime.end.p0(i64 4, ptr %3) #3
  ret void
}