; Function Attrs: mustprogress nofree norecurse nosync nounwind memory(readwrite, inaccessiblemem: none) uwtable
define hidden void @_ZN3sat9elim_vars12shuffle_varsEv(ptr noundef nonnull align 8 captures(none) dereferenceable(808) %0) local_unnamed_addr #7 align 2 {
  %2 = getelementptr inbounds nuw i8, ptr %0, i64 752
  %3 = load ptr, ptr %2, align 8, !tbaa !79
  %4 = icmp eq ptr %3, null
  br i1 %4, label %._crit_edge, label %_ZNK6vectorIjLb0EjE4sizeEv.exit

_ZNK6vectorIjLb0EjE4sizeEv.exit:                  ; preds = %1
  %5 = getelementptr inbounds i8, ptr %3, i64 -4
  %6 = load i32, ptr %5, align 4, !tbaa !80
  %.not = icmp eq i32 %6, 0
  br i1 %.not, label %._crit_edge, label %.lr.ph

.lr.ph:                                           ; preds = %_ZNK6vectorIjLb0EjE4sizeEv.exit
  %7 = getelementptr inbounds nuw i8, ptr %0, i64 744
  br label %8

._crit_edge:                                      ; preds = %8, %1, %_ZNK6vectorIjLb0EjE4sizeEv.exit
  ret void

8:                                                ; preds = %.lr.ph, %8
  %.08 = phi i32 [ 0, %.lr.ph ], [ %26, %8 ]
  %9 = load i32, ptr %7, align 8, !tbaa !43
  %10 = mul i32 %9, 214013
  %11 = add i32 %10, 2531011
  %12 = lshr i32 %11, 16
  %13 = and i32 %12, 32767
  %14 = urem i32 %13, %6
  %15 = mul i32 %11, 214013
  %16 = add i32 %15, 2531011
  store i32 %16, ptr %7, align 8, !tbaa !43
  %17 = lshr i32 %16, 16
  %18 = and i32 %17, 32767
  %19 = urem i32 %18, %6
  %20 = zext nneg i32 %14 to i64
  %21 = getelementptr inbounds nuw i32, ptr %3, i64 %20
  %22 = zext nneg i32 %19 to i64
  %23 = getelementptr inbounds nuw i32, ptr %3, i64 %22
  %24 = load i32, ptr %21, align 4, !tbaa !80
  %25 = load i32, ptr %23, align 4, !tbaa !80
  store i32 %25, ptr %21, align 4, !tbaa !80
  store i32 %24, ptr %23, align 4, !tbaa !80
  %26 = add nuw i32 %.08, 1
  %exitcond.not = icmp eq i32 %26, %6
  br i1 %exitcond.not, label %._crit_edge, label %8, !llvm.loop !286
}